; Function Attrs: alwaysinline norecurse nounwind ssp uwtable
define internal void @"_ZN6open3d4core15ParallelForCPU_IZZZNS0_8TriulCPUERKNS0_6TensorERS2_S5_iENK3$_0clEvENKUlvE5_clEvEUllE_EEvRKNS0_6DeviceElRKT_.omp_outlined"(ptr noalias noundef readonly captures(none) %0, ptr noalias readnone captures(none) %1, ptr noundef nonnull readonly align 8 captures(none) dereferenceable(8) %2, ptr noundef nonnull readonly align 8 captures(none) dereferenceable(40) %3) #9 personality ptr @__gxx_personality_v0 {
  %5 = alloca i64, align 8
  %6 = alloca i64, align 8
  %7 = alloca i64, align 8
  %8 = alloca i32, align 4
  %9 = load i64, ptr %2, align 8, !tbaa !11
  %10 = icmp sgt i64 %9, 0
  br i1 %10, label %11, label %49

11:                                               ; preds = %4
  %12 = add nsw i64 %9, -1
  call void @llvm.lifetime.start.p0(i64 8, ptr nonnull %5) #10
  store i64 0, ptr %5, align 8, !tbaa !11
  call void @llvm.lifetime.start.p0(i64 8, ptr nonnull %6) #10
  store i64 %12, ptr %6, align 8, !tbaa !11
  call void @llvm.lifetime.start.p0(i64 8, ptr nonnull %7) #10
  store i64 1, ptr %7, align 8, !tbaa !11
  call void @llvm.lifetime.start.p0(i64 4, ptr nonnull %8) #10
  store i32 0, ptr %8, align 4, !tbaa !4
  %13 = load i32, ptr %0, align 4, !tbaa !4
  call void @__kmpc_for_static_init_8(ptr nonnull @1, i32 %13, i32 34, ptr nonnull %8, ptr nonnull %5, ptr nonnull %6, ptr nonnull %7, i64 1, i64 1)
  %14 = load i64, ptr %6, align 8, !tbaa !11
  %15 = call i64 @llvm.smin.i64(i64 %14, i64 %12)
  store i64 %15, ptr %6, align 8, !tbaa !11
  %16 = load i64, ptr %5, align 8, !tbaa !11
  %.not13 = icmp sgt i64 %16, %15
  br i1 %.not13, label %._crit_edge, label %.lr.ph

.lr.ph:                                           ; preds = %11
  %17 = getelementptr inbounds nuw i8, ptr %3, i64 8
  %18 = getelementptr inbounds nuw i8, ptr %3, i64 16
  %.sink23.in.in.i = getelementptr inbounds nuw i8, ptr %3, i64 24
  br label %19

19:                                               ; preds = %.lr.ph, %"_ZZZZN6open3d4core8TriulCPUERKNS0_6TensorERS1_S4_iENK3$_0clEvENKUlvE5_clEvENKUllE_clEl.exit"
  %.014 = phi i64 [ %16, %.lr.ph ], [ %47, %"_ZZZZN6open3d4core8TriulCPUERKNS0_6TensorERS1_S4_iENK3$_0clEvENKUlvE5_clEvENKUllE_clEl.exit" ]
  %20 = load ptr, ptr %3, align 8, !tbaa !804
  %21 = load i32, ptr %20, align 4, !tbaa !4
  %22 = sext i32 %21 to i64
  %23 = sdiv i64 %.014, %22
  %24 = srem i64 %.014, %22
  %25 = sub nsw i64 %24, %23
  %26 = load ptr, ptr %17, align 8, !tbaa !806
  %27 = load i32, ptr %26, align 4, !tbaa !4
  %28 = sext i32 %27 to i64
  %29 = icmp slt i64 %25, %28
  br i1 %29, label %"_ZZZZN6open3d4core8TriulCPUERKNS0_6TensorERS1_S4_iENK3$_0clEvENKUlvE5_clEvENKUllE_clEl.exit", label %30

30:                                               ; preds = %19
  %31 = icmp sgt i64 %25, %28
  br i1 %31, label %"_ZZZZN6open3d4core8TriulCPUERKNS0_6TensorERS1_S4_iENK3$_0clEvENKUlvE5_clEvENKUllE_clEl.exit", label %32

32:                                               ; preds = %30
  %33 = load ptr, ptr %18, align 8, !tbaa !807
  %34 = load ptr, ptr %33, align 8, !tbaa !50
  %35 = getelementptr inbounds i8, ptr %34, i64 %.014
  store i8 1, ptr %35, align 1, !tbaa !13
  %36 = load ptr, ptr %3, align 8, !tbaa !804
  %37 = load i32, ptr %36, align 4, !tbaa !4
  %38 = sext i32 %37 to i64
  br label %"_ZZZZN6open3d4core8TriulCPUERKNS0_6TensorERS1_S4_iENK3$_0clEvENKUlvE5_clEvENKUllE_clEl.exit"

"_ZZZZN6open3d4core8TriulCPUERKNS0_6TensorERS1_S4_iENK3$_0clEvENKUlvE5_clEvENKUllE_clEl.exit": ; preds = %30, %19, %32
  %.sink.i = phi i64 [ %38, %32 ], [ %22, %19 ], [ %22, %30 ]
  %.sink21.i = phi i64 [ 32, %32 ], [ 16, %19 ], [ 32, %30 ]
  %.sink23.in.i = load ptr, ptr %.sink23.in.in.i, align 8, !tbaa !808
  %.sink23.i = load ptr, ptr %.sink23.in.i, align 8, !tbaa !50
  %39 = mul nsw i64 %.sink.i, %23
  %40 = getelementptr i8, ptr %.sink23.i, i64 %39
  %41 = getelementptr i8, ptr %40, i64 %24
  %42 = load i8, ptr %41, align 1, !tbaa !13
  %43 = getelementptr inbounds nuw i8, ptr %3, i64 %.sink21.i
  %44 = load ptr, ptr %43, align 8, !tbaa !51
  %45 = load ptr, ptr %44, align 8, !tbaa !50
  %46 = getelementptr inbounds i8, ptr %45, i64 %.014
  store i8 %42, ptr %46, align 1, !tbaa !13
  %47 = add nsw i64 %.014, 1
  %48 = load i64, ptr %6, align 8, !tbaa !11
  %.not.not = icmp slt i64 %.014, %48
  br i1 %.not.not, label %19, label %._crit_edge

._crit_edge:                                      ; preds = %"_ZZZZN6open3d4core8TriulCPUERKNS0_6TensorERS1_S4_iENK3$_0clEvENKUlvE5_clEvENKUllE_clEl.exit", %11
  call void @__kmpc_for_static_fini(ptr nonnull @1, i32 %13)
  call void @llvm.lifetime.end.p0(i64 4, ptr nonnull %8) #10
  call void @llvm.lifetime.end.p0(i64 8, ptr nonnull %7) #10
  call void @llvm.lifetime.end.p0(i64 8, ptr nonnull %6) #10
  call void @llvm.lifetime.end.p0(i64 8, ptr nonnull %5) #10
  br label %49

49:                                               ; preds = %._crit_edge, %4
  ret void
}